target datalayout = "e-m:e-p270:32:32-p271:32:32-p272:64:64-i64:64-i128:128-f80:128-n8:16:32:64-S128"
target triple = "x86_64-pc-linux-gnu"

%struct.SDL_GPUDevice = type { ptr, ptr, ptr, ptr, ptr, ptr, ptr, ptr, ptr, ptr, ptr, ptr, ptr, ptr, ptr, ptr, ptr, ptr, ptr, ptr, ptr, ptr, ptr, ptr, ptr, ptr, ptr, ptr, ptr, ptr, ptr, ptr, ptr, ptr, ptr, ptr, ptr, ptr, ptr, ptr, ptr, ptr, ptr, ptr, ptr, ptr, ptr, ptr, ptr, ptr, ptr, ptr, ptr, ptr, ptr, ptr, ptr, ptr, ptr, ptr, ptr, ptr, ptr, ptr, ptr, ptr, ptr, ptr, ptr, ptr, ptr, ptr, ptr, ptr, ptr, ptr, ptr, ptr, ptr, ptr, ptr, ptr, ptr, ptr, ptr, i32, i8 }
%struct.CommandBufferCommonHeader = type { ptr, %struct.RenderPass, i8, %struct.Pass, i8, %struct.Pass, i8, i8, i8 }
%struct.RenderPass = type { ptr, i8, [4 x ptr], i32, ptr }
%struct.Pass = type { ptr, i8 }

@.str.4 = private unnamed_addr constant [26 x i8] c"Parameter '%s' is invalid\00", align 1
@.str.8 = private unnamed_addr constant [103 x i8] c"generated/home/dtcxzyw/WorkSpace/Projects/compilers/llvm-opt-benchmark/bench/sdl/SDL/src/gpu/SDL_gpu.c\00", align 1
@.str.225 = private unnamed_addr constant [12 x i8] c"render_pass\00", align 1
@SDL_SetGPUStencilReference_REAL.sdl_assert_data = internal global { i8, [3 x i8], i32, ptr, ptr, i32, [4 x i8], ptr, ptr } { i8 0, [3 x i8] zeroinitializer, i32 0, ptr @.str.229, ptr null, i32 0, [4 x i8] zeroinitializer, ptr null, ptr null }, align 8
@__func__.SDL_SetGPUStencilReference_REAL = private unnamed_addr constant [32 x i8] c"SDL_SetGPUStencilReference_REAL\00", align 1

; Function Attrs: nounwind uwtable
define hidden void @SDL_SetGPUStencilReference_REAL(ptr noundef %0, i8 noundef zeroext %1) #0 {
  %3 = alloca ptr, align 8
  %4 = alloca i8, align 1
  %5 = alloca i32, align 4
  %6 = alloca i32, align 4
  store ptr %0, ptr %3, align 8
  store i8 %1, ptr %4, align 1
  %7 = load ptr, ptr %3, align 8
  %8 = icmp eq ptr %7, null
  br i1 %8, label %9, label %11

9:                                                ; preds = %2
  %10 = call zeroext i1 (ptr, ...) @SDL_SetError_REAL(ptr noundef @.str.4, ptr noundef @.str.225)
  br label %55

11:                                               ; preds = %2
  %12 = load ptr, ptr %3, align 8
  %13 = getelementptr inbounds nuw %struct.RenderPass, ptr %12, i32 0, i32 0
  %14 = load ptr, ptr %13, align 8
  %15 = getelementptr inbounds nuw %struct.CommandBufferCommonHeader, ptr %14, i32 0, i32 0
  %16 = load ptr, ptr %15, align 8
  %17 = getelementptr inbounds nuw %struct.SDL_GPUDevice, ptr %16, i32 0, i32 86
  %18 = load i8, ptr %17, align 4, !range !5, !noundef !6
  %19 = trunc i8 %18 to i1
  br i1 %19, label %20, label %43

20:                                               ; preds = %11
  %21 = load ptr, ptr %3, align 8
  %22 = getelementptr inbounds nuw %struct.RenderPass, ptr %21, i32 0, i32 1
  %23 = load i8, ptr %22, align 8, !range !5, !noundef !6
  %24 = trunc i8 %23 to i1
  br i1 %24, label %42, label %25

25:                                               ; preds = %20
  br label %26

26:                                               ; preds = %25
  br label %27

27:                                               ; preds = %26, %38
  call void @llvm.lifetime.start.p0(i64 4, ptr %5) #6
  %28 = call i32 @SDL_ReportAssertion_REAL(ptr noundef @SDL_SetGPUStencilReference_REAL.sdl_assert_data, ptr noundef @__func__.SDL_SetGPUStencilReference_REAL, ptr noundef @.str.8, i32 noundef 1790)
  store i32 %28, ptr %5, align 4
  %29 = load i32, ptr %5, align 4
  %30 = icmp eq i32 %29, 0
  br i1 %30, label %31, label %32

31:                                               ; preds = %27
  store i32 4, ptr %6, align 4
  br label %38

32:                                               ; preds = %27
  %33 = load i32, ptr %5, align 4
  %34 = icmp eq i32 %33, 1
  br i1 %34, label %35, label %36

35:                                               ; preds = %32
  call void @llvm.debugtrap()
  br label %36

36:                                               ; preds = %35, %32
  br label %37

37:                                               ; preds = %36
  store i32 5, ptr %6, align 4
  br label %38

38:                                               ; preds = %37, %31
  call void @llvm.lifetime.end.p0(i64 4, ptr %5) #6
  %39 = load i32, ptr %6, align 4
  switch i32 %39, label %56 [
    i32 4, label %27
    i32 5, label %40
  ]

40:                                               ; preds = %38
  br label %41

41:                                               ; preds = %40
  br label %55

42:                                               ; preds = %20
  br label %43

43:                                               ; preds = %42, %11
  %44 = load ptr, ptr %3, align 8
  %45 = getelementptr inbounds nuw %struct.RenderPass, ptr %44, i32 0, i32 0
  %46 = load ptr, ptr %45, align 8
  %47 = getelementptr inbounds nuw %struct.CommandBufferCommonHeader, ptr %46, i32 0, i32 0
  %48 = load ptr, ptr %47, align 8
  %49 = getelementptr inbounds nuw %struct.SDL_GPUDevice, ptr %48, i32 0, i32 26
  %50 = load ptr, ptr %49, align 8
  %51 = load ptr, ptr %3, align 8
  %52 = getelementptr inbounds nuw %struct.RenderPass, ptr %51, i32 0, i32 0
  %53 = load ptr, ptr %52, align 8
  %54 = load i8, ptr %4, align 1
  call void %50(ptr noundef %53, i8 noundef zeroext %54)
  br label %55

55:                                               ; preds = %43, %41, %9
  ret void

56:                                               ; preds = %38
  unreachable
}