; Function Attrs: nounwind uwtable
define hidden void @SDL_SetGPUStencilReference_REAL(ptr noundef readonly captures(address_is_null) %0, i8 noundef zeroext %1) local_unnamed_addr #0 {
  %3 = icmp eq ptr %0, null
  br i1 %3, label %4, label %6

4:                                                ; preds = %2
  %5 = tail call zeroext i1 (ptr, ...) @SDL_SetError_REAL(ptr noundef nonnull @.str.4, ptr noundef nonnull @.str.225) #7
  br label %.thread

6:                                                ; preds = %2
  %7 = load ptr, ptr %0, align 8
  %8 = load ptr, ptr %7, align 8
  %9 = getelementptr inbounds nuw i8, ptr %8, i64 684
  %10 = load i8, ptr %9, align 4, !range !5, !noundef !6
  %11 = trunc nuw i8 %10 to i1
  br i1 %11, label %12, label %18

12:                                               ; preds = %6
  %13 = getelementptr inbounds nuw i8, ptr %0, i64 8
  %14 = load i8, ptr %13, align 8, !range !5, !noundef !6
  %15 = trunc nuw i8 %14 to i1
  br i1 %15, label %18, label %.preheader

.preheader:                                       ; preds = %12, %.preheader
  %16 = tail call i32 @SDL_ReportAssertion_REAL(ptr noundef nonnull @SDL_SetGPUStencilReference_REAL.sdl_assert_data, ptr noundef nonnull @__func__.SDL_SetGPUStencilReference_REAL, ptr noundef nonnull @.str.8, i32 noundef 1790) #7
  switch i32 %16, label %.thread [
    i32 0, label %.preheader
    i32 1, label %17
  ]

17:                                               ; preds = %.preheader
  tail call void @llvm.debugtrap()
  br label %.thread

18:                                               ; preds = %12, %6
  %19 = getelementptr inbounds nuw i8, ptr %8, i64 208
  %20 = load ptr, ptr %19, align 8
  tail call void %20(ptr noundef nonnull %7, i8 noundef zeroext %1) #7
  br label %.thread

.thread:                                          ; preds = %.preheader, %17, %18, %4
  ret void
}